; Function Attrs: mustprogress uwtable
define noundef nonnull align 8 dereferenceable(49) ptr @_ZNK7Imf_3_419MultiPartOutputFile6headerEi(ptr noundef nonnull readonly align 8 captures(none) dereferenceable(16) %0, i32 noundef %1) local_unnamed_addr #4 align 2 personality ptr @__gxx_personality_v0 {
  %3 = alloca %"class.std::__cxx11::basic_stringstream", align 8
  %4 = icmp slt i32 %1, 0
  br i1 %4, label %17, label %5

5:                                                ; preds = %2
  %6 = getelementptr inbounds nuw i8, ptr %0, i64 8
  %7 = load ptr, ptr %6, align 8, !tbaa !17
  %8 = getelementptr inbounds nuw i8, ptr %7, i64 136
  %9 = getelementptr inbounds nuw i8, ptr %7, i64 144
  %10 = load ptr, ptr %9, align 8, !tbaa !21
  %11 = load ptr, ptr %8, align 8, !tbaa !24
  %12 = ptrtoint ptr %10 to i64
  %13 = ptrtoint ptr %11 to i64
  %14 = sub i64 %12, %13
  %15 = sdiv exact i64 %14, 56
  %16 = trunc i64 %15 to i32
  %.not = icmp slt i32 %1, %16
  br i1 %.not, label %42, label %17

17:                                               ; preds = %2, %5
  tail call void @_Z13iex_debugTrapv()
  call void @llvm.lifetime.start.p0(i64 392, ptr nonnull %3) #27
  call void @_ZNSt7__cxx1118basic_stringstreamIcSt11char_traitsIcESaIcEEC1Ev(ptr noundef nonnull align 8 dereferenceable(128) %3)
  %18 = getelementptr inbounds nuw i8, ptr %3, i64 16
  %19 = invoke noundef nonnull align 8 dereferenceable(8) ptr @_ZSt16__ostream_insertIcSt11char_traitsIcEERSt13basic_ostreamIT_T0_ES6_PKS3_l(ptr noundef nonnull align 8 dereferenceable(8) %18, ptr noundef nonnull @.str.19, i64 noundef 60)
          to label %_ZStlsISt11char_traitsIcEERSt13basic_ostreamIcT_ES5_PKc.exit unwind label %37

_ZStlsISt11char_traitsIcEERSt13basic_ostreamIcT_ES5_PKc.exit: ; preds = %17
  %20 = invoke noundef nonnull align 8 dereferenceable(8) ptr @_ZNSolsEi(ptr noundef nonnull align 8 dereferenceable(8) %18, i32 noundef %1)
          to label %21 unwind label %37

21:                                               ; preds = %_ZStlsISt11char_traitsIcEERSt13basic_ostreamIcT_ES5_PKc.exit
  %22 = invoke noundef nonnull align 8 dereferenceable(8) ptr @_ZSt16__ostream_insertIcSt11char_traitsIcEERSt13basic_ostreamIT_T0_ES6_PKS3_l(ptr noundef nonnull align 8 dereferenceable(8) %20, ptr noundef nonnull @.str.9, i64 noundef 14)
          to label %_ZStlsISt11char_traitsIcEERSt13basic_ostreamIcT_ES5_PKc.exit9 unwind label %37

_ZStlsISt11char_traitsIcEERSt13basic_ostreamIcT_ES5_PKc.exit9: ; preds = %21
  %23 = getelementptr inbounds nuw i8, ptr %0, i64 8
  %24 = load ptr, ptr %23, align 8, !tbaa !17
  %25 = getelementptr inbounds nuw i8, ptr %24, i64 136
  %26 = getelementptr inbounds nuw i8, ptr %24, i64 144
  %27 = load ptr, ptr %26, align 8, !tbaa !21
  %28 = load ptr, ptr %25, align 8, !tbaa !24
  %29 = ptrtoint ptr %27 to i64
  %30 = ptrtoint ptr %28 to i64
  %31 = sub i64 %29, %30
  %32 = sdiv exact i64 %31, 56
  %33 = invoke noundef nonnull align 8 dereferenceable(8) ptr @_ZNSo9_M_insertImEERSoT_(ptr noundef nonnull align 8 dereferenceable(8) %20, i64 noundef %32)
          to label %_ZNSolsEm.exit unwind label %37

_ZNSolsEm.exit:                                   ; preds = %_ZStlsISt11char_traitsIcEERSt13basic_ostreamIcT_ES5_PKc.exit9
  %34 = invoke noundef nonnull align 8 dereferenceable(8) ptr @_ZSt16__ostream_insertIcSt11char_traitsIcEERSt13basic_ostreamIT_T0_ES6_PKS3_l(ptr noundef nonnull align 8 dereferenceable(8) %33, ptr noundef nonnull @.str.10, i64 noundef 6)
          to label %_ZStlsISt11char_traitsIcEERSt13basic_ostreamIcT_ES5_PKc.exit10 unwind label %37

_ZStlsISt11char_traitsIcEERSt13basic_ostreamIcT_ES5_PKc.exit10: ; preds = %_ZNSolsEm.exit
  %35 = call ptr @__cxa_allocate_exception(i64 72) #27
  invoke void @_ZN7Iex_3_46ArgExcC1ERNSt7__cxx1118basic_stringstreamIcSt11char_traitsIcESaIcEEE(ptr noundef nonnull align 8 dereferenceable(72) %35, ptr noundef nonnull align 8 dereferenceable(128) %3)
          to label %36 unwind label %39

36:                                               ; preds = %_ZStlsISt11char_traitsIcEERSt13basic_ostreamIcT_ES5_PKc.exit10
  invoke void @__cxa_throw(ptr nonnull %35, ptr nonnull @_ZTIN7Iex_3_46ArgExcE, ptr nonnull @_ZN7Iex_3_46ArgExcD1Ev) #26
          to label %45 unwind label %37

37:                                               ; preds = %_ZNSolsEm.exit, %_ZStlsISt11char_traitsIcEERSt13basic_ostreamIcT_ES5_PKc.exit9, %21, %17, %36, %_ZStlsISt11char_traitsIcEERSt13basic_ostreamIcT_ES5_PKc.exit
  %38 = landingpad { ptr, i32 }
          cleanup
  br label %41

39:                                               ; preds = %_ZStlsISt11char_traitsIcEERSt13basic_ostreamIcT_ES5_PKc.exit10
  %40 = landingpad { ptr, i32 }
          cleanup
  call void @__cxa_free_exception(ptr nonnull %35) #27
  br label %41

41:                                               ; preds = %39, %37
  %.pn = phi { ptr, i32 } [ %38, %37 ], [ %40, %39 ]
  call void @_ZNSt7__cxx1118basic_stringstreamIcSt11char_traitsIcESaIcEED1Ev(ptr noundef nonnull align 8 dereferenceable(128) %3) #27
  call void @llvm.lifetime.end.p0(i64 392, ptr nonnull %3) #27
  resume { ptr, i32 } %.pn

42:                                               ; preds = %5
  %43 = zext nneg i32 %1 to i64
  %44 = getelementptr inbounds nuw %"class.Imf_3_4::Header", ptr %11, i64 %43
  ret ptr %44

45:                                               ; preds = %36
  unreachable
}